; Function Attrs: mustprogress uwtable
define void @_ZNK8QuantLib14DigitalIborLegcvSt6vectorIN5boost10shared_ptrINS_8CashFlowEEESaIS5_EEEv(ptr dead_on_unwind noalias writable sret(%"class.std::vector.69") align 8 %agg.result, ptr noundef nonnull align 8 dereferenceable(409) %this) local_unnamed_addr #8 align 2 {
entry:
  %notionals_ = getelementptr inbounds nuw i8, ptr %this, i64 152
  %index_ = getelementptr inbounds nuw i8, ptr %this, i64 136
  %paymentDayCounter_ = getelementptr inbounds nuw i8, ptr %this, i64 176
  %paymentAdjustment_ = getelementptr inbounds nuw i8, ptr %this, i64 192
  %0 = load i32, ptr %paymentAdjustment_, align 8, !tbaa !75
  %fixingDays_ = getelementptr inbounds nuw i8, ptr %this, i64 200
  %gearings_ = getelementptr inbounds nuw i8, ptr %this, i64 224
  %spreads_ = getelementptr inbounds nuw i8, ptr %this, i64 248
  %inArrears_ = getelementptr inbounds nuw i8, ptr %this, i64 272
  %1 = load i8, ptr %inArrears_, align 8, !tbaa !111, !range !26, !noundef !27
  %loadedv = trunc nuw i8 %1 to i1
  %callStrikes_ = getelementptr inbounds nuw i8, ptr %this, i64 280
  %longCallOption_ = getelementptr inbounds nuw i8, ptr %this, i64 328
  %2 = load i32, ptr %longCallOption_, align 8, !tbaa !112
  %callATM_ = getelementptr inbounds nuw i8, ptr %this, i64 332
  %3 = load i8, ptr %callATM_, align 4, !tbaa !113, !range !26, !noundef !27
  %loadedv2 = trunc nuw i8 %3 to i1
  %callPayoffs_ = getelementptr inbounds nuw i8, ptr %this, i64 304
  %putStrikes_ = getelementptr inbounds nuw i8, ptr %this, i64 336
  %longPutOption_ = getelementptr inbounds nuw i8, ptr %this, i64 384
  %4 = load i32, ptr %longPutOption_, align 8, !tbaa !114
  %putATM_ = getelementptr inbounds nuw i8, ptr %this, i64 388
  %5 = load i8, ptr %putATM_, align 4, !tbaa !115, !range !26, !noundef !27
  %loadedv3 = trunc nuw i8 %5 to i1
  %putPayoffs_ = getelementptr inbounds nuw i8, ptr %this, i64 360
  %replication_ = getelementptr inbounds nuw i8, ptr %this, i64 392
  %nakedOption_ = getelementptr inbounds nuw i8, ptr %this, i64 408
  %6 = load i8, ptr %nakedOption_, align 8, !tbaa !123, !range !26, !noundef !27
  %loadedv4 = trunc nuw i8 %6 to i1
  tail call void @_ZN8QuantLib18FloatingDigitalLegINS_9IborIndexENS_10IborCouponENS_17DigitalIborCouponEEESt6vectorIN5boost10shared_ptrINS_8CashFlowEEESaIS8_EERKNS_8ScheduleERKS4_IdSaIdEERKNS6_IT_EERKNS_10DayCounterENS_21BusinessDayConventionERKS4_IjSaIjEESH_SH_bSH_NS_8Position4TypeEbSH_SH_SV_bSH_RKNS6_INS_18DigitalReplicationEEEb(ptr dead_on_unwind writable sret(%"class.std::vector.69") align 8 %agg.result, ptr noundef nonnull align 8 dereferenceable(136) %this, ptr noundef nonnull align 8 dereferenceable(24) %notionals_, ptr noundef nonnull align 8 dereferenceable(16) %index_, ptr noundef nonnull align 8 dereferenceable(16) %paymentDayCounter_, i32 noundef %0, ptr noundef nonnull align 8 dereferenceable(24) %fixingDays_, ptr noundef nonnull align 8 dereferenceable(24) %gearings_, ptr noundef nonnull align 8 dereferenceable(24) %spreads_, i1 noundef zeroext %loadedv, ptr noundef nonnull align 8 dereferenceable(24) %callStrikes_, i32 noundef %2, i1 noundef zeroext %loadedv2, ptr noundef nonnull align 8 dereferenceable(24) %callPayoffs_, ptr noundef nonnull align 8 dereferenceable(24) %putStrikes_, i32 noundef %4, i1 noundef zeroext %loadedv3, ptr noundef nonnull align 8 dereferenceable(24) %putPayoffs_, ptr noundef nonnull align 8 dereferenceable(16) %replication_, i1 noundef zeroext %loadedv4)
  ret void
}